; Function Attrs: mustprogress uwtable
define hidden noundef nonnull align 8 dereferenceable(40) ptr @_ZN11ext_numeralmIERKS_(ptr noundef nonnull returned align 8 dereferenceable(40) %0, ptr noundef nonnull align 8 dereferenceable(40) %1) local_unnamed_addr #3 align 2 {
  %3 = load i32, ptr %0, align 8, !tbaa !3
  %.not = icmp eq i32 %3, 1
  br i1 %.not, label %4, label %_ZN8rationalmIERKS_.exit

4:                                                ; preds = %2
  %5 = load i32, ptr %1, align 8, !tbaa !3
  switch i32 %5, label %45 [
    i32 0, label %6
    i32 1, label %13
    i32 2, label %38
  ]

6:                                                ; preds = %4
  store i32 2, ptr %0, align 8, !tbaa !3
  %7 = getelementptr inbounds nuw i8, ptr %0, i64 8
  %8 = load ptr, ptr @_ZN8rational13g_mpq_managerE, align 8, !tbaa !14
  tail call void @_ZN11mpz_managerILb1EE5resetER3mpz(ptr noundef nonnull align 8 dereferenceable(728) %8, ptr noundef nonnull align 8 dereferenceable(32) %7)
  %9 = getelementptr inbounds nuw i8, ptr %0, i64 24
  tail call void @_ZN11mpz_managerILb1EE3delEPS0_R3mpz(ptr noundef nonnull align 8 dereferenceable(728) %8, ptr noundef nonnull align 8 dereferenceable(16) %9)
  store i32 1, ptr %9, align 8, !tbaa !16
  %10 = getelementptr inbounds nuw i8, ptr %0, i64 28
  %11 = load i8, ptr %10, align 4
  %12 = and i8 %11, -2
  store i8 %12, ptr %10, align 4
  br label %_ZN8rationalmIERKS_.exit

13:                                               ; preds = %4
  %14 = getelementptr inbounds nuw i8, ptr %1, i64 8
  %15 = getelementptr inbounds nuw i8, ptr %0, i64 8
  %16 = load ptr, ptr @_ZN8rational13g_mpq_managerE, align 8, !tbaa !14
  %17 = getelementptr inbounds nuw i8, ptr %0, i64 24
  %18 = getelementptr inbounds nuw i8, ptr %0, i64 28
  %19 = load i8, ptr %18, align 4
  %20 = and i8 %19, 1
  %21 = icmp eq i8 %20, 0
  %22 = load i32, ptr %17, align 8
  %23 = icmp eq i32 %22, 1
  %24 = select i1 %21, i1 %23, i1 false
  br i1 %24, label %25, label %37

25:                                               ; preds = %13
  %26 = getelementptr inbounds nuw i8, ptr %1, i64 24
  %27 = getelementptr inbounds nuw i8, ptr %1, i64 28
  %28 = load i8, ptr %27, align 4
  %29 = and i8 %28, 1
  %30 = icmp eq i8 %29, 0
  %31 = load i32, ptr %26, align 8
  %32 = icmp eq i32 %31, 1
  %33 = select i1 %30, i1 %32, i1 false
  br i1 %33, label %34, label %37

34:                                               ; preds = %25
  tail call void @_ZN11mpz_managerILb1EE3subERK3mpzS3_RS1_(ptr noundef nonnull align 8 dereferenceable(728) %16, ptr noundef nonnull align 8 dereferenceable(32) %15, ptr noundef nonnull align 8 dereferenceable(32) %14, ptr noundef nonnull align 8 dereferenceable(32) %15)
  tail call void @_ZN11mpz_managerILb1EE3delEPS0_R3mpz(ptr noundef nonnull align 8 dereferenceable(728) %16, ptr noundef nonnull align 8 dereferenceable(16) %17)
  store i32 1, ptr %17, align 8, !tbaa !16
  %35 = load i8, ptr %18, align 4
  %36 = and i8 %35, -2
  store i8 %36, ptr %18, align 4
  br label %_ZN8rationalmIERKS_.exit

37:                                               ; preds = %25, %13
  tail call void @_ZN11mpq_managerILb1EE7rat_subERK3mpqS3_RS1_(ptr noundef nonnull align 8 dereferenceable(728) %16, ptr noundef nonnull align 8 dereferenceable(32) %15, ptr noundef nonnull align 8 dereferenceable(32) %14, ptr noundef nonnull align 8 dereferenceable(32) %15)
  br label %_ZN8rationalmIERKS_.exit

38:                                               ; preds = %4
  store i32 0, ptr %0, align 8, !tbaa !3
  %39 = getelementptr inbounds nuw i8, ptr %0, i64 8
  %40 = load ptr, ptr @_ZN8rational13g_mpq_managerE, align 8, !tbaa !14
  tail call void @_ZN11mpz_managerILb1EE5resetER3mpz(ptr noundef nonnull align 8 dereferenceable(728) %40, ptr noundef nonnull align 8 dereferenceable(32) %39)
  %41 = getelementptr inbounds nuw i8, ptr %0, i64 24
  tail call void @_ZN11mpz_managerILb1EE3delEPS0_R3mpz(ptr noundef nonnull align 8 dereferenceable(728) %40, ptr noundef nonnull align 8 dereferenceable(16) %41)
  store i32 1, ptr %41, align 8, !tbaa !16
  %42 = getelementptr inbounds nuw i8, ptr %0, i64 28
  %43 = load i8, ptr %42, align 4
  %44 = and i8 %43, -2
  store i8 %44, ptr %42, align 4
  br label %_ZN8rationalmIERKS_.exit

45:                                               ; preds = %4
  tail call void @_Z26notify_assertion_violationPKciS0_(ptr noundef nonnull @.str, i32 noundef 70, ptr noundef nonnull @.str.1)
  tail call void @_Z18invoke_exit_actionj(i32 noundef 114)
  br label %_ZN8rationalmIERKS_.exit

_ZN8rationalmIERKS_.exit:                         ; preds = %37, %34, %2, %45, %38, %6
  ret ptr %0
}